target datalayout = "e-m:e-p270:32:32-p271:32:32-p272:64:64-i64:64-i128:128-f80:128-n8:16:32:64-S128"
target triple = "x86_64-pc-linux-gnu"

@eChildExited = internal global i64 0, align 8
@.str.6 = private unnamed_addr constant [7 x i8] c"status\00", align 1
@.str.15 = private unnamed_addr constant [8 x i8] c"stopped\00", align 1
@.str.16 = private unnamed_addr constant [8 x i8] c"changed\00", align 1
@.str.17 = private unnamed_addr constant [7 x i8] c"exited\00", align 1
@.str.18 = private unnamed_addr constant [14 x i8] c"pty - %s: %ld\00", align 1

; Function Attrs: noreturn nounwind sspstrong uwtable
define internal void @raise_from_check(i32 noundef %0, i32 noundef %1) #9 {
  %3 = alloca i32, align 4
  %4 = alloca i32, align 4
  %5 = alloca ptr, align 8
  %6 = alloca i64, align 8
  %7 = alloca i64, align 8
  store i32 %0, ptr %3, align 4, !tbaa !10
  store i32 %1, ptr %4, align 4, !tbaa !10
  call void @llvm.lifetime.start.p0(i64 8, ptr %5) #15
  call void @llvm.lifetime.start.p0(i64 8, ptr %6) #15
  call void @llvm.lifetime.start.p0(i64 8, ptr %7) #15
  %8 = load i32, ptr %4, align 4, !tbaa !10
  %9 = and i32 %8, 255
  %10 = icmp eq i32 %9, 127
  br i1 %10, label %11, label %12

11:                                               ; preds = %2
  store ptr @.str.15, ptr %5, align 8, !tbaa !20
  br label %19

12:                                               ; preds = %2
  %13 = load i32, ptr %3, align 4, !tbaa !10
  %14 = call i32 @kill(i32 noundef %13, i32 noundef 0) #15
  %15 = icmp eq i32 %14, 0
  br i1 %15, label %16, label %17

16:                                               ; preds = %12
  store ptr @.str.16, ptr %5, align 8, !tbaa !20
  br label %18

17:                                               ; preds = %12
  store ptr @.str.17, ptr %5, align 8, !tbaa !20
  br label %18

18:                                               ; preds = %17, %16
  br label %19

19:                                               ; preds = %18, %11
  %20 = load ptr, ptr %5, align 8, !tbaa !20
  %21 = load i32, ptr %3, align 4, !tbaa !10
  %22 = sext i32 %21 to i64
  %23 = call i64 (ptr, ...) @rb_sprintf(ptr noundef @.str.18, ptr noundef %20, i64 noundef %22)
  store i64 %23, ptr %6, align 8, !tbaa !6
  %24 = load i64, ptr @eChildExited, align 8, !tbaa !6
  %25 = load i64, ptr %6, align 8, !tbaa !6
  %26 = call i64 @rb_exc_new_str(i64 noundef %24, i64 noundef %25)
  store i64 %26, ptr %7, align 8, !tbaa !6
  %27 = load i64, ptr %7, align 8, !tbaa !6
  %28 = call i64 @rb_last_status_get()
  %29 = call i64 @rb_iv_set(i64 noundef %27, ptr noundef @.str.6, i64 noundef %28)
  %30 = load i64, ptr %7, align 8, !tbaa !6
  call void @rb_exc_raise(i64 noundef %30) #16
  unreachable
}