; Function Attrs: noreturn nounwind sspstrong uwtable
define internal fastcc void @raise_from_check(i32 noundef range(i32 1, -1) %0, i32 noundef %1) unnamed_addr #8 {
  %3 = and i32 %1, 255
  %4 = icmp eq i32 %3, 127
  br i1 %4, label %8, label %5

5:                                                ; preds = %2
  %6 = tail call i32 @kill(i32 noundef %0, i32 noundef 0) #10
  %7 = icmp eq i32 %6, 0
  %.str.16..str.17 = select i1 %7, ptr @.str.16, ptr @.str.17
  br label %8

8:                                                ; preds = %5, %2
  %.0 = phi ptr [ @.str.15, %2 ], [ %.str.16..str.17, %5 ]
  %9 = sext i32 %0 to i64
  %10 = tail call i64 (ptr, ...) @rb_sprintf(ptr noundef nonnull @.str.18, ptr noundef nonnull %.0, i64 noundef %9) #10
  %11 = load i64, ptr @eChildExited, align 8, !tbaa !6
  %12 = tail call i64 @rb_exc_new_str(i64 noundef %11, i64 noundef %10) #10
  %13 = tail call i64 @rb_last_status_get() #10
  %14 = tail call i64 @rb_iv_set(i64 noundef %12, ptr noundef nonnull @.str.6, i64 noundef %13) #10
  tail call void @rb_exc_raise(i64 noundef %12) #11
  unreachable
}